Certificate:
    Data:
        Version: 3 (0x2)
        Serial Number:
            42:5b:13:ef:85:70:c7:e3:6b:cc:a5:06:de:b2:d4:86:fe:c2:15:8a
        Signature Algorithm: sha256WithRSAEncryption
        Issuer: C = AE, ST = Dubai, L = Dubai, O = Ghym FZ-LLC, OU = DevOps, CN = ae-dc1-3, emailAddress = maxkadyshev@gmail.com
        Validity
            Not Before: Jul 25 08:52:10 2022 GMT
            Not After : Aug 24 08:52:10 2022 GMT
        Subject: C = AE, ST = Dubai, L = Dubai, O = Ghym FZ-LLC, OU = DevOps, CN = ae-dc1-3, emailAddress = maxkadyshev@gmail.com
        Subject Public Key Info:
            Public Key Algorithm: rsaEncryption
                Public-Key: (4096 bit)
                Modulus:
                    00:97:9c:67:40:32:5e:5b:c2:ed:4a:0b:82:b0:80:
                    fc:85:c2:5f:10:bb:13:b3:32:a1:f7:2f:9f:3c:7f:
                    6d:46:2e:12:2c:fa:90:ba:1b:07:cc:f4:de:89:93:
                    e0:f7:e6:76:c4:25:ec:0b:26:10:31:22:87:94:b8:
                    ee:45:3f:ef:a5:0b:8b:94:cc:2f:85:93:e5:ff:bb:
                    55:37:bb:57:d1:4e:58:61:ee:f0:fb:9f:9f:b5:ed:
                    94:3d:25:8f:25:01:f5:0f:df:1b:23:90:6d:c8:1a:
                    99:0e:d5:18:1f:32:d0:0f:d5:e4:a2:70:2d:85:30:
                    db:73:d4:8a:06:de:83:07:bb:50:44:5b:cc:e5:fd:
                    d0:4c:5c:cf:85:f0:23:48:4b:d2:3e:c7:d7:bf:37:
                    a6:40:6d:54:a8:69:52:ba:72:87:73:67:41:f5:85:
                    f9:bd:6b:93:4c:65:84:48:3b:46:a0:17:8a:19:43:
                    09:34:cc:f3:fe:94:89:6b:7b:b8:ab:4e:83:9c:57:
                    0d:71:a1:3b:1d:f9:05:ba:60:05:95:5d:d3:bd:c8:
                    ff:cb:29:52:bd:75:95:b4:5f:13:58:49:98:12:39:
                    10:80:a9:b8:41:fc:98:b4:bc:39:5b:79:c7:5e:01:
                    a3:7c:c7:39:5f:f6:90:a5:10:d0:ea:5e:79:91:d1:
                    2f:3d:43:de:bc:bf:8e:59:63:eb:a1:0f:32:20:f0:
                    3d:f2:a1:08:84:5f:a0:65:76:f5:8b:84:23:1d:1a:
                    61:6d:db:d1:b2:22:35:a4:33:b2:f2:87:a7:d9:f0:
                    22:4c:58:72:a2:2d:dc:ec:94:1c:4f:71:de:16:d7:
                    04:3e:1d:02:28:ba:6f:ae:b7:d0:d0:7e:b7:bd:5a:
                    2b:be:fe:12:90:20:6e:b2:d8:27:f1:63:87:a2:bd:
                    ba:c2:8e:5a:e2:09:da:19:94:a1:6b:28:6a:c0:ae:
                    51:5b:f8:58:fe:e8:7c:e5:0a:45:d3:b5:8c:88:54:
                    58:30:4d:31:98:5a:e2:4b:50:3f:7a:56:f9:66:fa:
                    66:4c:d0:f2:56:b0:d1:68:c3:e5:ad:78:ca:bd:38:
                    8a:b6:f6:11:32:51:4a:63:ec:4d:88:c2:86:62:dc:
                    76:23:a3:fa:f6:b0:27:e7:5a:fb:3c:63:c2:ea:d4:
                    46:92:68:ea:e9:d4:12:4e:79:1b:33:cc:92:99:9d:
                    7f:27:c0:35:72:1a:0e:4c:38:39:68:b0:26:74:e4:
                    8f:69:d5:2f:16:35:4f:51:77:12:11:fa:6a:ae:89:
                    43:81:b8:93:a5:1a:91:80:cb:eb:bd:53:ae:0e:e7:
                    59:5f:9a:91:fc:f8:16:fd:74:1a:8b:0a:ac:61:0b:
                    12:50:2f
                Exponent: 65537 (0x10001)
        X509v3 extensions:
            X509v3 Subject Key Identifier: 
                3E:94:52:36:20:F9:7C:97:45:90:63:B3:0E:F7:3D:B5:66:69:EA:76
            X509v3 Authority Key Identifier: 
                3E:94:52:36:20:F9:7C:97:45:90:63:B3:0E:F7:3D:B5:66:69:EA:76
            X509v3 Basic Constraints: critical
                CA:TRUE
            X509v3 Subject Alternative Name: 
                DNS:ae-dc1-3
    Signature Algorithm: sha256WithRSAEncryption
    Signature Value:
        30:5e:d5:d7:97:05:c3:21:39:8d:0c:6d:cf:6a:06:13:7f:02:
        bd:06:5f:6f:d7:d2:77:b5:fb:1a:4f:91:72:db:c3:f3:f6:50:
        65:64:57:03:27:db:8c:f6:15:a0:e7:7d:9d:be:ed:24:9d:ef:
        e4:9f:e6:c3:b6:a8:81:4b:5c:db:e1:84:1f:76:93:be:dd:e6:
        96:93:16:54:d6:27:9e:fb:46:8a:97:b6:5f:38:1e:af:16:d7:
        28:39:5f:31:17:75:69:76:d8:d7:0f:24:aa:9c:53:99:c1:15:
        7b:a4:93:6d:b0:d6:b2:e6:16:e0:5f:15:73:98:88:92:be:58:
        40:a0:30:5f:6a:d5:4f:9a:72:e9:be:cc:a0:a0:51:0c:e2:ea:
        86:ae:02:e7:11:2b:07:4a:b2:51:91:fb:54:f9:78:f9:89:9d:
        01:71:a9:2e:43:39:b5:fe:32:1b:40:03:33:5d:03:93:9e:24:
        c9:29:8d:02:dd:9f:d5:71:fd:dd:79:72:e9:a9:30:48:27:e1:
        12:20:46:c6:b9:7c:36:82:92:52:77:4f:df:88:70:93:79:b8:
        c3:12:c1:1b:16:91:bb:26:9b:2a:25:92:16:8c:4a:f9:2f:f6:
        5d:21:eb:67:12:86:dd:97:25:bf:d7:8b:95:de:a3:ab:90:29:
        28:92:00:4c:25:7a:86:ab:b7:56:cb:08:5c:95:09:78:fe:67:
        78:ae:19:0d:86:57:a6:43:ef:05:40:57:bf:a8:d2:e6:da:3c:
        5d:37:74:a1:22:be:16:74:e1:60:de:32:66:b6:f2:b9:d7:96:
        a0:6a:2f:58:0a:dd:9c:03:5b:08:c7:3c:8f:4e:38:da:a4:22:
        b1:8a:33:d3:6f:c6:51:f6:f8:e3:9c:02:42:86:e1:26:53:2a:
        20:36:0b:e3:ff:54:fd:be:18:86:65:69:1a:d3:d0:4d:27:bb:
        32:e8:bf:8a:31:90:59:10:ba:73:b0:8f:57:c4:aa:63:53:1c:
        a4:e9:39:f4:45:7f:5f:11:de:7c:79:ec:db:84:2e:f0:1a:c3:
        e6:a5:b4:b3:11:ac:59:d9:53:31:58:67:4b:7e:8e:eb:ff:4c:
        02:c0:9e:50:ef:34:69:6b:45:20:7a:94:b0:4d:e2:33:b0:13:
        5e:0b:ff:aa:99:29:7a:90:1f:aa:fb:fc:87:a1:a5:0c:7d:c6:
        6b:43:01:84:82:db:61:c0:1f:78:5e:89:a4:3a:8d:67:0e:8d:
        ce:11:49:5e:f7:95:1b:b2:37:3f:3e:ad:80:71:98:eb:63:9e:
        e1:97:62:7e:17:17:a3:8d:04:5c:8b:d7:bf:09:63:12:82:8d:
        02:f8:fe:32:12:69:43:99
-----BEGIN CERTIFICATE-----
MIIGEjCCA/qgAwIBAgIUQlsT74Vwx+NrzKUG3rLUhv7CFYowDQYJKoZIhvcNAQEL
BQAwgY0xCzAJBgNVBAYTAkFFMQ4wDAYDVQQIDAVEdWJhaTEOMAwGA1UEBwwFRHVi
YWkxFDASBgNVBAoMC0doeW0gRlotTExDMQ8wDQYDVQQLDAZEZXZPcHMxETAPBgNV
BAMMCGFlLWRjMS0zMSQwIgYJKoZIhvcNAQkBFhVtYXhrYWR5c2hldkBnbWFpbC5j
b20wHhcNMjIwNzI1MDg1MjEwWhcNMjIwODI0MDg1MjEwWjCBjTELMAkGA1UEBhMC
QUUxDjAMBgNVBAgMBUR1YmFpMQ4wDAYDVQQHDAVEdWJhaTEUMBIGA1UECgwLR2h5
bSBGWi1MTEMxDzANBgNVBAsMBkRldk9wczERMA8GA1UEAwwIYWUtZGMxLTMxJDAi
BgkqhkiG9w0BCQEWFW1heGthZHlzaGV2QGdtYWlsLmNvbTCCAiIwDQYJKoZIhvcN
AQEBBQADggIPADCCAgoCggIBAJecZ0AyXlvC7UoLgrCA/IXCXxC7E7Myofcvnzx/
bUYuEiz6kLobB8z03omT4PfmdsQl7AsmEDEih5S47kU/76ULi5TML4WT5f+7VTe7
V9FOWGHu8Pufn7XtlD0ljyUB9Q/fGyOQbcgamQ7VGB8y0A/V5KJwLYUw23PUigbe
gwe7UERbzOX90Excz4XwI0hL0j7H1783pkBtVKhpUrpyh3NnQfWF+b1rk0xlhEg7
RqAXihlDCTTM8/6UiWt7uKtOg5xXDXGhOx35BbpgBZVd073I/8spUr11lbRfE1hJ
mBI5EICpuEH8mLS8OVt5x14Bo3zHOV/2kKUQ0OpeeZHRLz1D3ry/jllj66EPMiDw
PfKhCIRfoGV29YuEIx0aYW3b0bIiNaQzsvKHp9nwIkxYcqIt3OyUHE9x3hbXBD4d
Aii6b6630NB+t71aK77+EpAgbrLYJ/Fjh6K9usKOWuIJ2hmUoWsoasCuUVv4WP7o
fOUKRdO1jIhUWDBNMZha4ktQP3pW+Wb6ZkzQ8law0WjD5a14yr04irb2ETJRSmPs
TYjChmLcdiOj+vawJ+da+zxjwurURpJo6unUEk55GzPMkpmdfyfANXIaDkw4OWiw
JnTkj2nVLxY1T1F3EhH6aq6JQ4G4k6UakYDL671Trg7nWV+akfz4Fv10GosKrGEL
ElAvAgMBAAGjaDBmMB0GA1UdDgQWBBQ+lFI2IPl8l0WQY7MO9z21ZmnqdjAfBgNV
HSMEGDAWgBQ+lFI2IPl8l0WQY7MO9z21ZmnqdjAPBgNVHRMBAf8EBTADAQH/MBMG
A1UdEQQMMAqCCGFlLWRjMS0zMA0GCSqGSIb3DQEBCwUAA4ICAQAwXtXXlwXDITmN
DG3PagYTfwK9Bl9v19J3tfsaT5Fy28Pz9lBlZFcDJ9uM9hWg532dvu0kne/kn+bD
tqiBS1zb4YQfdpO+3eaWkxZU1iee+0aKl7ZfOB6vFtcoOV8xF3VpdtjXDySqnFOZ
wRV7pJNtsNay5hbgXxVzmIiSvlhAoDBfatVPmnLpvsygoFEM4uqGrgLnESsHSrJR
kftU+Xj5iZ0BcakuQzm1/jIbQAMzXQOTniTJKY0C3Z/Vcf3deXLpqTBIJ+ESIEbG
uXw2gpJSd0/fiHCTebjDEsEbFpG7JpsqJZIWjEr5L/ZdIetnEobdlyW/14uV3qOr
kCkokgBMJXqGq7dWywhclQl4/md4rhkNhlemQ+8FQFe/qNLm2jxdN3ShIr4WdOFg
3jJmtvK515agai9YCt2cA1sIxzyPTjjapCKxijPTb8ZR9vjjnAJChuEmUyogNgvj
/1T9vhiGZWka09BNJ7sy6L+KMZBZELpzsI9XxKpjUxyk6Tn0RX9fEd58eezbhC7w
GsPmpbSzEaxZ2VMxWGdLfo7r/0wCwJ5Q7zRpa0UgepSwTeIzsBNeC/+qmSl6kB+q
+/yHoaUMfcZrQwGEgtthwB94XomkOo1nDo3OEUle95Ubsjc/Pq2AcZjrY57hl2J+
FxejjQRci9e/CWMSgo0C+P4yEmlDmQ==
-----END CERTIFICATE-----
